Certificate:
    Data:
        Version: 3 (0x2)
        Serial Number: 4722483386736398578 (0x4189a19e941b50f2)
        Signature Algorithm: sha512WithRSAEncryption
        Issuer: O=Trend Asia, CN=Trend Asia Certificate Authority
        Validity
            Not Before: Jan 15 23:29:00 2024 GMT
            Not After : Jan 15 23:29:00 2034 GMT
        Subject: O=Trend Asia, CN=Trend Asia Certificate Authority
        Subject Public Key Info:
            Public Key Algorithm: rsaEncryption
                Public-Key: (4096 bit)
                Modulus:
                    00:a7:7c:d5:2f:68:ba:52:ee:28:ff:1b:d1:20:50:
                    bb:73:60:c3:4e:66:92:f1:e0:81:6a:81:77:14:32:
                    c2:45:d6:1c:d9:78:4a:6d:c2:53:c1:e2:a0:78:8b:
                    8a:84:bf:f7:69:fe:3b:ca:8b:2a:79:51:7c:58:b6:
                    1b:82:64:17:0f:c8:ac:6d:b8:bd:e5:6b:a7:d8:97:
                    64:ea:7c:9a:74:1a:0c:fa:73:a2:35:00:83:76:a3:
                    8b:4b:c8:19:56:10:98:13:3e:82:c0:4c:6d:1a:c3:
                    b5:28:26:9a:43:78:e4:45:5f:c7:19:84:af:49:b4:
                    d6:fb:eb:80:77:59:67:9c:f0:2f:97:74:79:5c:20:
                    5a:aa:6c:52:2e:48:5d:11:1f:75:d2:ac:18:23:42:
                    b0:10:41:b5:52:a6:8f:ae:9a:eb:da:c4:0a:f6:70:
                    d5:52:38:9e:75:10:28:43:4f:cf:cf:ba:58:e9:73:
                    de:fa:cd:45:44:59:7b:ef:ce:c5:7b:87:ce:fe:ae:
                    1a:29:a3:95:35:9f:53:a9:e0:79:f0:e8:e0:f2:93:
                    91:4f:04:7e:6d:e5:de:e7:3d:eb:7c:4a:6d:fc:3f:
                    6f:fc:83:99:63:09:c3:cb:0e:67:0f:50:d8:d0:e2:
                    00:40:82:43:aa:56:91:23:14:7a:60:40:27:1a:53:
                    ee:a5:3d:47:bd:6f:ca:39:fb:37:d4:bd:98:35:f2:
                    a3:03:82:e5:68:9d:f4:1c:e7:71:57:cb:6e:cb:97:
                    55:a6:02:78:16:a7:ef:0e:df:47:d3:4b:21:69:65:
                    56:58:19:9d:45:a7:ac:e8:14:27:c1:89:88:c3:75:
                    9c:cb:c4:e6:37:92:22:7c:c9:5a:6f:28:25:96:94:
                    28:15:79:9a:6b:93:ff:f0:62:ea:e8:1e:db:b1:ad:
                    28:46:ca:7c:ad:02:87:c1:4e:67:b1:78:48:de:64:
                    db:db:40:35:f7:57:11:68:23:09:37:ba:a6:e2:83:
                    5b:1a:22:33:f8:3e:91:3f:80:e7:b8:98:95:96:34:
                    6f:de:9e:a0:52:98:5f:d1:af:c1:f3:86:36:47:d2:
                    0e:a6:2d:48:9a:02:36:d7:82:4c:99:d4:fb:05:3b:
                    67:99:75:72:57:4a:b7:a2:84:89:f5:09:b1:e4:a5:
                    e5:3f:42:be:5e:ae:37:fb:ac:e3:09:9f:29:85:4d:
                    4e:66:e4:4c:e5:ae:4a:1f:ae:9d:37:ae:c6:aa:5c:
                    40:70:cd:4d:1a:15:2c:44:ff:e7:3c:9a:b7:d0:8f:
                    bc:87:b9:bf:d0:7a:08:f3:29:b1:b4:6b:8f:9e:db:
                    b7:ce:85:6c:f7:9c:84:0b:4a:f4:b4:03:26:4f:ba:
                    f6:31:77
                Exponent: 65537 (0x10001)
        X509v3 extensions:
            X509v3 Basic Constraints: critical
                CA:TRUE
            X509v3 Subject Key Identifier: 
                C7:1D:65:8E:0C:41:0B:D1:80:82:F4:9F:B6:11:CB:73:9F:EB:27:CC
            X509v3 Key Usage: 
                Certificate Sign, CRL Sign
            Netscape Cert Type: 
                SSL CA, S/MIME CA, Object Signing CA
    Signature Algorithm: sha512WithRSAEncryption
    Signature Value:
        1a:63:c8:74:a3:23:ec:42:52:68:12:7d:09:33:06:83:44:ae:
        77:df:50:fc:c2:e9:db:58:3e:92:55:3e:f3:06:4c:41:b9:ae:
        e4:7a:6e:4a:46:59:35:31:e3:69:3b:0b:51:e5:0e:77:aa:39:
        7e:13:a6:a2:98:cd:7b:87:67:f7:89:73:ab:56:fd:c5:b7:c5:
        de:c1:cb:74:a0:7d:2a:3a:66:55:86:40:b2:14:fc:d7:56:a7:
        6a:b8:63:13:01:49:00:71:b7:42:0e:49:09:c0:65:9b:b5:8d:
        0a:67:1b:1e:9e:ba:65:34:2e:e8:0c:01:5a:8a:cf:c0:5b:5a:
        37:5b:24:a6:8b:b5:9c:9d:74:75:e6:e9:b9:ba:05:14:b3:b4:
        99:7c:75:bf:7e:13:f1:71:9e:63:a4:1b:75:9c:e8:58:2e:de:
        69:d9:68:bf:06:46:f6:a3:bb:a5:45:9e:10:c0:3c:7d:9f:a3:
        5c:13:98:46:74:58:ee:ac:40:bd:c4:8a:b8:1f:47:43:aa:90:
        e3:1e:9c:dc:1b:83:24:fd:b5:b9:27:9a:03:0d:70:bc:a7:f3:
        13:f7:65:76:b0:e5:4c:a7:3a:97:31:4c:f2:89:53:54:66:f4:
        0e:fe:b3:aa:61:ed:98:e7:1c:32:fb:ab:1f:ad:bb:b5:1d:4c:
        bd:7e:1b:f5:33:f6:05:e4:23:aa:80:42:bd:0b:84:cf:be:69:
        69:47:b8:9f:8d:32:0a:ad:43:11:02:75:f1:61:cc:3b:66:f7:
        ad:ef:98:b7:cb:32:76:b9:32:56:b9:23:3c:12:39:a3:55:da:
        3d:6d:7d:5e:d5:72:3f:99:4e:10:87:75:e8:83:48:fa:90:45:
        95:be:57:5a:b9:71:cf:26:33:20:37:47:6a:5e:80:42:05:c9:
        bc:78:e5:de:f5:83:4b:1a:3d:ff:aa:9d:c5:e2:74:17:4f:87:
        e3:7a:ef:ae:8f:b3:64:59:5b:19:04:b5:86:fc:60:e2:63:9f:
        e2:34:b5:31:77:bd:b7:58:24:90:e5:f7:a1:9e:a3:1a:56:29:
        02:76:e2:52:8c:ed:cd:f4:13:f7:1e:b1:cc:90:0c:82:9b:34:
        46:e3:92:e6:07:42:2e:09:f1:1e:1d:92:89:4f:06:4c:b5:76:
        ea:fc:49:df:0b:6c:e2:34:17:0e:45:c9:75:70:12:ab:2d:d6:
        d7:d6:ac:66:9c:02:45:10:1d:d3:e3:3a:81:65:78:66:d0:7f:
        43:fe:81:c3:d2:c1:03:a0:ac:12:07:2b:9f:32:7b:62:ad:4d:
        e2:e6:4a:63:ab:d0:46:d5:5c:1a:79:9e:27:10:10:72:93:53:
        6a:11:ae:2c:25:95:54:19
-----BEGIN CERTIFICATE-----
MIIFVDCCAzygAwIBAgIIQYmhnpQbUPIwDQYJKoZIhvcNAQENBQAwQDETMBEGA1UE
ChMKVHJlbmQgQXNpYTEpMCcGA1UEAxMgVHJlbmQgQXNpYSBDZXJ0aWZpY2F0ZSBB
dXRob3JpdHkwHhcNMjQwMTE1MjMyOTAwWhcNMzQwMTE1MjMyOTAwWjBAMRMwEQYD
VQQKEwpUcmVuZCBBc2lhMSkwJwYDVQQDEyBUcmVuZCBBc2lhIENlcnRpZmljYXRl
IEF1dGhvcml0eTCCAiIwDQYJKoZIhvcNAQEBBQADggIPADCCAgoCggIBAKd81S9o
ulLuKP8b0SBQu3Ngw05mkvHggWqBdxQywkXWHNl4Sm3CU8HioHiLioS/92n+O8qL
KnlRfFi2G4JkFw/IrG24veVrp9iXZOp8mnQaDPpzojUAg3aji0vIGVYQmBM+gsBM
bRrDtSgmmkN45EVfxxmEr0m01vvrgHdZZ5zwL5d0eVwgWqpsUi5IXREfddKsGCNC
sBBBtVKmj66a69rECvZw1VI4nnUQKENPz8+6WOlz3vrNRURZe+/OxXuHzv6uGimj
lTWfU6ngefDo4PKTkU8Efm3l3uc963xKbfw/b/yDmWMJw8sOZw9Q2NDiAECCQ6pW
kSMUemBAJxpT7qU9R71vyjn7N9S9mDXyowOC5Wid9BzncVfLbsuXVaYCeBan7w7f
R9NLIWllVlgZnUWnrOgUJ8GJiMN1nMvE5jeSInzJWm8oJZaUKBV5mmuT//Bi6uge
27GtKEbKfK0Ch8FOZ7F4SN5k29tANfdXEWgjCTe6puKDWxoiM/g+kT+A57iYlZY0
b96eoFKYX9GvwfOGNkfSDqYtSJoCNteCTJnU+wU7Z5l1cldKt6KEifUJseSl5T9C
vl6uN/us4wmfKYVNTmbkTOWuSh+unTeuxqpcQHDNTRoVLET/5zyat9CPvIe5v9B6
CPMpsbRrj57bt86FbPechAtK9LQDJk+69jF3AgMBAAGjUjBQMA8GA1UdEwEB/wQF
MAMBAf8wHQYDVR0OBBYEFMcdZY4MQQvRgIL0n7YRy3Of6yfMMAsGA1UdDwQEAwIB
BjARBglghkgBhvhCAQEEBAMCAAcwDQYJKoZIhvcNAQENBQADggIBABpjyHSjI+xC
UmgSfQkzBoNErnffUPzC6dtYPpJVPvMGTEG5ruR6bkpGWTUx42k7C1HlDneqOX4T
pqKYzXuHZ/eJc6tW/cW3xd7By3SgfSo6ZlWGQLIU/NdWp2q4YxMBSQBxt0IOSQnA
ZZu1jQpnGx6eumU0LugMAVqKz8BbWjdbJKaLtZyddHXm6bm6BRSztJl8db9+E/Fx
nmOkG3Wc6Fgu3mnZaL8GRvaju6VFnhDAPH2fo1wTmEZ0WO6sQL3EirgfR0OqkOMe
nNwbgyT9tbknmgMNcLyn8xP3ZXaw5UynOpcxTPKJU1Rm9A7+s6ph7ZjnHDL7qx+t
u7UdTL1+G/Uz9gXkI6qAQr0LhM++aWlHuJ+NMgqtQxECdfFhzDtm963vmLfLMna5
Mla5IzwSOaNV2j1tfV7Vcj+ZThCHdeiDSPqQRZW+V1q5cc8mMyA3R2pegEIFybx4
5d71g0saPf+qncXidBdPh+N6766Ps2RZWxkEtYb8YOJjn+I0tTF3vbdYJJDl96Ge
oxpWKQJ24lKM7c30E/cescyQDIKbNEbjkuYHQi4J8R4dkolPBky1dur8Sd8LbOI0
Fw5FyXVwEqst1tfWrGacAkUQHdPjOoFleGbQf0P+gcPSwQOgrBIHK58ye2KtTeLm
SmOr0EbVXBp5nicQEHKTU2oRriwllVQZ
-----END CERTIFICATE-----
